target datalayout = "e-m:e-p270:32:32-p271:32:32-p272:64:64-i64:64-i128:128-f80:128-n8:16:32:64-S128"
target triple = "x86_64-pc-linux-gnu"

%struct.SortSupportData = type { ptr, i32, i8, i8, i16, ptr, ptr, i8, ptr, ptr, ptr }
%struct.macaddr_sortsupport_state = type { i64, i8, %struct.hyperLogLogState }
%struct.hyperLogLogState = type { i8, i64, double, ptr, i64 }

@.str.9 = private unnamed_addr constant [6 x i8] c"mac.c\00", align 1
@trace_sort = external global i8, align 1
@.str.12 = private unnamed_addr constant [77 x i8] c"macaddr_abbrev: estimation ends at cardinality %f after %ld values (%d rows)\00", align 1
@__func__.macaddr_abbrev_abort = private unnamed_addr constant [21 x i8] c"macaddr_abbrev_abort\00", align 1
@.str.13 = private unnamed_addr constant [102 x i8] c"macaddr_abbrev: aborting abbreviation at cardinality %f below threshold %f after %ld values (%d rows)\00", align 1
@.str.14 = private unnamed_addr constant [58 x i8] c"macaddr_abbrev: cardinality %f after %ld values (%d rows)\00", align 1

; Function Attrs: nounwind uwtable
define internal zeroext i1 @macaddr_abbrev_abort(i32 noundef %0, ptr noundef %1) #0 {
  %3 = alloca i1, align 1
  %4 = alloca i32, align 4
  %5 = alloca ptr, align 8
  %6 = alloca ptr, align 8
  %7 = alloca double, align 8
  %8 = alloca i32, align 4
  store i32 %0, ptr %4, align 4
  store ptr %1, ptr %5, align 8
  call void @llvm.lifetime.start.p0(i64 8, ptr %6) #9
  %9 = load ptr, ptr %5, align 8
  %10 = getelementptr inbounds nuw %struct.SortSupportData, ptr %9, i32 0, i32 5
  %11 = load ptr, ptr %10, align 8
  store ptr %11, ptr %6, align 8
  call void @llvm.lifetime.start.p0(i64 8, ptr %7) #9
  %12 = load i32, ptr %4, align 4
  %13 = icmp slt i32 %12, 10000
  br i1 %13, label %24, label %14

14:                                               ; preds = %2
  %15 = load ptr, ptr %6, align 8
  %16 = getelementptr inbounds nuw %struct.macaddr_sortsupport_state, ptr %15, i32 0, i32 0
  %17 = load i64, ptr %16, align 8
  %18 = icmp slt i64 %17, 10000
  br i1 %18, label %24, label %19

19:                                               ; preds = %14
  %20 = load ptr, ptr %6, align 8
  %21 = getelementptr inbounds nuw %struct.macaddr_sortsupport_state, ptr %20, i32 0, i32 1
  %22 = load i8, ptr %21, align 8, !range !4, !noundef !5
  %23 = trunc i8 %22 to i1
  br i1 %23, label %25, label %24

24:                                               ; preds = %19, %14, %2
  store i1 false, ptr %3, align 1
  store i32 1, ptr %8, align 4
  br label %108

25:                                               ; preds = %19
  %26 = load ptr, ptr %6, align 8
  %27 = getelementptr inbounds nuw %struct.macaddr_sortsupport_state, ptr %26, i32 0, i32 2
  %28 = call double @estimateHyperLogLog(ptr noundef %27)
  store double %28, ptr %7, align 8
  %29 = load double, ptr %7, align 8
  %30 = fcmp ogt double %29, 1.000000e+05
  br i1 %30, label %31, label %53

31:                                               ; preds = %25
  %32 = load i8, ptr @trace_sort, align 1, !range !4, !noundef !5
  %33 = trunc i8 %32 to i1
  br i1 %33, label %34, label %50

34:                                               ; preds = %31
  br label %35

35:                                               ; preds = %34
  br i1 false, label %36, label %38

36:                                               ; preds = %35
  %37 = call zeroext i1 @errstart_cold(i32 noundef 15, ptr noundef null) #10
  br i1 %37, label %40, label %47

38:                                               ; preds = %35
  %39 = call zeroext i1 @errstart(i32 noundef 15, ptr noundef null)
  br i1 %39, label %40, label %47

40:                                               ; preds = %38, %36
  %41 = load double, ptr %7, align 8
  %42 = load ptr, ptr %6, align 8
  %43 = getelementptr inbounds nuw %struct.macaddr_sortsupport_state, ptr %42, i32 0, i32 0
  %44 = load i64, ptr %43, align 8
  %45 = load i32, ptr %4, align 4
  %46 = call i32 (ptr, ...) @errmsg_internal(ptr noundef @.str.12, double noundef %41, i64 noundef %44, i32 noundef %45)
  call void @errfinish(ptr noundef @.str.9, i32 noundef 437, ptr noundef @__func__.macaddr_abbrev_abort)
  br label %47

47:                                               ; preds = %40, %38, %36
  br label %48

48:                                               ; preds = %47
  br label %49

49:                                               ; preds = %48
  br label %50

50:                                               ; preds = %49, %31
  %51 = load ptr, ptr %6, align 8
  %52 = getelementptr inbounds nuw %struct.macaddr_sortsupport_state, ptr %51, i32 0, i32 1
  store i8 0, ptr %52, align 8
  store i1 false, ptr %3, align 1
  store i32 1, ptr %8, align 4
  br label %108

53:                                               ; preds = %25
  %54 = load double, ptr %7, align 8
  %55 = load ptr, ptr %6, align 8
  %56 = getelementptr inbounds nuw %struct.macaddr_sortsupport_state, ptr %55, i32 0, i32 0
  %57 = load i64, ptr %56, align 8
  %58 = sitofp i64 %57 to double
  %59 = fdiv double %58, 2.000000e+03
  %60 = fadd double %59, 5.000000e-01
  %61 = fcmp olt double %54, %60
  br i1 %61, label %62, label %88

62:                                               ; preds = %53
  %63 = load i8, ptr @trace_sort, align 1, !range !4, !noundef !5
  %64 = trunc i8 %63 to i1
  br i1 %64, label %65, label %87

65:                                               ; preds = %62
  br label %66

66:                                               ; preds = %65
  br i1 false, label %67, label %69

67:                                               ; preds = %66
  %68 = call zeroext i1 @errstart_cold(i32 noundef 15, ptr noundef null) #10
  br i1 %68, label %71, label %84

69:                                               ; preds = %66
  %70 = call zeroext i1 @errstart(i32 noundef 15, ptr noundef null)
  br i1 %70, label %71, label %84

71:                                               ; preds = %69, %67
  %72 = load double, ptr %7, align 8
  %73 = load ptr, ptr %6, align 8
  %74 = getelementptr inbounds nuw %struct.macaddr_sortsupport_state, ptr %73, i32 0, i32 0
  %75 = load i64, ptr %74, align 8
  %76 = sitofp i64 %75 to double
  %77 = fdiv double %76, 2.000000e+03
  %78 = fadd double %77, 5.000000e-01
  %79 = load ptr, ptr %6, align 8
  %80 = getelementptr inbounds nuw %struct.macaddr_sortsupport_state, ptr %79, i32 0, i32 0
  %81 = load i64, ptr %80, align 8
  %82 = load i32, ptr %4, align 4
  %83 = call i32 (ptr, ...) @errmsg_internal(ptr noundef @.str.13, double noundef %72, double noundef %78, i64 noundef %81, i32 noundef %82)
  call void @errfinish(ptr noundef @.str.9, i32 noundef 455, ptr noundef @__func__.macaddr_abbrev_abort)
  br label %84

84:                                               ; preds = %71, %69, %67
  br label %85

85:                                               ; preds = %84
  br label %86

86:                                               ; preds = %85
  br label %87

87:                                               ; preds = %86, %62
  store i1 true, ptr %3, align 1
  store i32 1, ptr %8, align 4
  br label %108

88:                                               ; preds = %53
  %89 = load i8, ptr @trace_sort, align 1, !range !4, !noundef !5
  %90 = trunc i8 %89 to i1
  br i1 %90, label %91, label %107

91:                                               ; preds = %88
  br label %92

92:                                               ; preds = %91
  br i1 false, label %93, label %95

93:                                               ; preds = %92
  %94 = call zeroext i1 @errstart_cold(i32 noundef 15, ptr noundef null) #10
  br i1 %94, label %97, label %104

95:                                               ; preds = %92
  %96 = call zeroext i1 @errstart(i32 noundef 15, ptr noundef null)
  br i1 %96, label %97, label %104

97:                                               ; preds = %95, %93
  %98 = load double, ptr %7, align 8
  %99 = load ptr, ptr %6, align 8
  %100 = getelementptr inbounds nuw %struct.macaddr_sortsupport_state, ptr %99, i32 0, i32 0
  %101 = load i64, ptr %100, align 8
  %102 = load i32, ptr %4, align 4
  %103 = call i32 (ptr, ...) @errmsg_internal(ptr noundef @.str.14, double noundef %98, i64 noundef %101, i32 noundef %102)
  call void @errfinish(ptr noundef @.str.9, i32 noundef 462, ptr noundef @__func__.macaddr_abbrev_abort)
  br label %104

104:                                              ; preds = %97, %95, %93
  br label %105

105:                                              ; preds = %104
  br label %106

106:                                              ; preds = %105
  br label %107

107:                                              ; preds = %106, %88
  store i1 false, ptr %3, align 1
  store i32 1, ptr %8, align 4
  br label %108

108:                                              ; preds = %107, %87, %50, %24
  call void @llvm.lifetime.end.p0(i64 8, ptr %7) #9
  call void @llvm.lifetime.end.p0(i64 8, ptr %6) #9
  %109 = load i1, ptr %3, align 1
  ret i1 %109
}