; Function Attrs: nounwind uwtable
define internal noundef zeroext i1 @macaddr_abbrev_abort(i32 noundef %0, ptr noundef readonly captures(none) %1) #0 {
  %3 = getelementptr inbounds nuw i8, ptr %1, i64 16
  %4 = load ptr, ptr %3, align 8
  %5 = icmp slt i32 %0, 10000
  br i1 %5, label %49, label %6

6:                                                ; preds = %2
  %7 = load i64, ptr %4, align 8
  %8 = icmp slt i64 %7, 10000
  br i1 %8, label %49, label %9

9:                                                ; preds = %6
  %10 = getelementptr inbounds nuw i8, ptr %4, i64 8
  %11 = load i8, ptr %10, align 8, !range !22, !noundef !23
  %12 = trunc nuw i8 %11 to i1
  br i1 %12, label %13, label %49

13:                                               ; preds = %9
  %14 = getelementptr inbounds nuw i8, ptr %4, i64 16
  %15 = tail call double @estimateHyperLogLog(ptr noundef nonnull %14) #7
  %16 = fcmp ogt double %15, 1.000000e+05
  br i1 %16, label %17, label %26

17:                                               ; preds = %13
  %18 = load i8, ptr @trace_sort, align 1, !range !22, !noundef !23
  %19 = trunc nuw i8 %18 to i1
  br i1 %19, label %20, label %25

20:                                               ; preds = %17
  %21 = tail call zeroext i1 @errstart(i32 noundef 15, ptr noundef null) #7
  br i1 %21, label %22, label %25

22:                                               ; preds = %20
  %23 = load i64, ptr %4, align 8
  %24 = tail call i32 (ptr, ...) @errmsg_internal(ptr noundef nonnull @.str.12, double noundef %15, i64 noundef %23, i32 noundef %0) #7
  tail call void @errfinish(ptr noundef nonnull @.str.9, i32 noundef 437, ptr noundef nonnull @__func__.macaddr_abbrev_abort) #7
  br label %25

25:                                               ; preds = %20, %22, %17
  store i8 0, ptr %10, align 8
  br label %49

26:                                               ; preds = %13
  %27 = load i64, ptr %4, align 8
  %28 = sitofp i64 %27 to double
  %29 = fdiv double %28, 2.000000e+03
  %30 = fadd double %29, 5.000000e-01
  %31 = fcmp olt double %15, %30
  %32 = load i8, ptr @trace_sort, align 1, !range !22, !noundef !23
  %33 = trunc nuw i8 %32 to i1
  br i1 %31, label %34, label %43

34:                                               ; preds = %26
  br i1 %33, label %35, label %49

35:                                               ; preds = %34
  %36 = tail call zeroext i1 @errstart(i32 noundef 15, ptr noundef null) #7
  br i1 %36, label %37, label %49

37:                                               ; preds = %35
  %38 = load i64, ptr %4, align 8
  %39 = sitofp i64 %38 to double
  %40 = fdiv double %39, 2.000000e+03
  %41 = fadd double %40, 5.000000e-01
  %42 = tail call i32 (ptr, ...) @errmsg_internal(ptr noundef nonnull @.str.13, double noundef %15, double noundef %41, i64 noundef %38, i32 noundef %0) #7
  tail call void @errfinish(ptr noundef nonnull @.str.9, i32 noundef 455, ptr noundef nonnull @__func__.macaddr_abbrev_abort) #7
  br label %49

43:                                               ; preds = %26
  br i1 %33, label %44, label %49

44:                                               ; preds = %43
  %45 = tail call zeroext i1 @errstart(i32 noundef 15, ptr noundef null) #7
  br i1 %45, label %46, label %49

46:                                               ; preds = %44
  %47 = load i64, ptr %4, align 8
  %48 = tail call i32 (ptr, ...) @errmsg_internal(ptr noundef nonnull @.str.14, double noundef %15, i64 noundef %47, i32 noundef %0) #7
  tail call void @errfinish(ptr noundef nonnull @.str.9, i32 noundef 462, ptr noundef nonnull @__func__.macaddr_abbrev_abort) #7
  br label %49

49:                                               ; preds = %43, %46, %44, %34, %37, %35, %2, %6, %9, %25
  %.0 = phi i1 [ false, %25 ], [ false, %9 ], [ false, %6 ], [ false, %2 ], [ true, %35 ], [ true, %37 ], [ true, %34 ], [ false, %44 ], [ false, %46 ], [ false, %43 ]
  ret i1 %.0
}